; Function Attrs: nounwind uwtable
define hidden void @_PyWarnings_Fini(ptr noundef captures(none) %0) local_unnamed_addr #0 {
  %2 = getelementptr inbounds nuw i8, ptr %0, i64 10672
  %3 = load ptr, ptr %2, align 8, !tbaa !14
  %.not.i = icmp eq ptr %3, null
  br i1 %.not.i, label %Py_DECREF.exit22.i, label %4

4:                                                ; preds = %1
  store ptr null, ptr %2, align 8, !tbaa !14
  %5 = load i32, ptr %3, align 8, !tbaa !15
  %.not.i21.i = icmp sgt i32 %5, -1
  br i1 %.not.i21.i, label %6, label %Py_DECREF.exit22.i

6:                                                ; preds = %4
  %7 = add nsw i32 %5, -1
  store i32 %7, ptr %3, align 8, !tbaa !15
  %8 = icmp eq i32 %7, 0
  br i1 %8, label %9, label %Py_DECREF.exit22.i

9:                                                ; preds = %6
  tail call void @_Py_Dealloc(ptr noundef nonnull %3) #7
  br label %Py_DECREF.exit22.i

Py_DECREF.exit22.i:                               ; preds = %9, %6, %4, %1
  %10 = getelementptr inbounds nuw i8, ptr %0, i64 10680
  %11 = load ptr, ptr %10, align 8, !tbaa !14
  %.not17.i = icmp eq ptr %11, null
  br i1 %.not17.i, label %Py_DECREF.exit20.i, label %12

12:                                               ; preds = %Py_DECREF.exit22.i
  store ptr null, ptr %10, align 8, !tbaa !14
  %13 = load i32, ptr %11, align 8, !tbaa !15
  %.not.i19.i = icmp sgt i32 %13, -1
  br i1 %.not.i19.i, label %14, label %Py_DECREF.exit20.i

14:                                               ; preds = %12
  %15 = add nsw i32 %13, -1
  store i32 %15, ptr %11, align 8, !tbaa !15
  %16 = icmp eq i32 %15, 0
  br i1 %16, label %17, label %Py_DECREF.exit20.i

17:                                               ; preds = %14
  tail call void @_Py_Dealloc(ptr noundef nonnull %11) #7
  br label %Py_DECREF.exit20.i

Py_DECREF.exit20.i:                               ; preds = %17, %14, %12, %Py_DECREF.exit22.i
  %18 = getelementptr inbounds nuw i8, ptr %0, i64 10688
  %19 = load ptr, ptr %18, align 8, !tbaa !14
  %.not18.i = icmp eq ptr %19, null
  br i1 %.not18.i, label %warnings_clear_state.exit, label %20

20:                                               ; preds = %Py_DECREF.exit20.i
  store ptr null, ptr %18, align 8, !tbaa !14
  %21 = load i32, ptr %19, align 8, !tbaa !15
  %.not.i.i = icmp sgt i32 %21, -1
  br i1 %.not.i.i, label %22, label %warnings_clear_state.exit

22:                                               ; preds = %20
  %23 = add nsw i32 %21, -1
  store i32 %23, ptr %19, align 8, !tbaa !15
  %24 = icmp eq i32 %23, 0
  br i1 %24, label %25, label %warnings_clear_state.exit

25:                                               ; preds = %22
  tail call void @_Py_Dealloc(ptr noundef nonnull %19) #7
  br label %warnings_clear_state.exit

warnings_clear_state.exit:                        ; preds = %Py_DECREF.exit20.i, %20, %22, %25
  ret void
}